target datalayout = "e-m:e-p270:32:32-p271:32:32-p272:64:64-i64:64-i128:128-f80:128-n8:16:32:64-S128"
target triple = "x86_64-pc-linux-gnu"

%struct.string_list = type { ptr, i64, i64, i8, ptr }
%struct.string_list_item = type { ptr, ptr }

@.str.13 = private unnamed_addr constant [2 x i8] c"/\00", align 1

; Function Attrs: nounwind uwtable
define dso_local i32 @longest_ancestor_length(ptr noundef %0, ptr noundef %1) #0 {
  %3 = alloca i32, align 4
  %4 = alloca ptr, align 8
  %5 = alloca ptr, align 8
  %6 = alloca i32, align 4
  %7 = alloca i32, align 4
  %8 = alloca i64, align 8
  %9 = alloca ptr, align 8
  %10 = alloca i32, align 4
  store ptr %0, ptr %4, align 8, !tbaa !43
  store ptr %1, ptr %5, align 8, !tbaa !110
  call void @llvm.lifetime.start.p0(i64 4, ptr %6) #12
  store i32 -1, ptr %6, align 4, !tbaa !4
  %11 = load ptr, ptr %4, align 8, !tbaa !43
  %12 = call i32 @strcmp(ptr noundef %11, ptr noundef @.str.13) #14
  %13 = icmp ne i32 %12, 0
  br i1 %13, label %15, label %14

14:                                               ; preds = %2
  store i32 -1, ptr %3, align 4
  store i32 1, ptr %7, align 4
  br label %87

15:                                               ; preds = %2
  call void @llvm.lifetime.start.p0(i64 8, ptr %8) #12
  store i64 0, ptr %8, align 8, !tbaa !11
  br label %16

16:                                               ; preds = %82, %15
  %17 = load i64, ptr %8, align 8, !tbaa !11
  %18 = load ptr, ptr %5, align 8, !tbaa !110
  %19 = getelementptr inbounds nuw %struct.string_list, ptr %18, i32 0, i32 1
  %20 = load i64, ptr %19, align 8, !tbaa !112
  %21 = icmp ult i64 %17, %20
  br i1 %21, label %23, label %22

22:                                               ; preds = %16
  store i32 2, ptr %7, align 4
  call void @llvm.lifetime.end.p0(i64 8, ptr %8) #12
  br label %85

23:                                               ; preds = %16
  call void @llvm.lifetime.start.p0(i64 8, ptr %9) #12
  %24 = load ptr, ptr %5, align 8, !tbaa !110
  %25 = getelementptr inbounds nuw %struct.string_list, ptr %24, i32 0, i32 0
  %26 = load ptr, ptr %25, align 8, !tbaa !115
  %27 = load i64, ptr %8, align 8, !tbaa !11
  %28 = getelementptr inbounds nuw %struct.string_list_item, ptr %26, i64 %27
  %29 = getelementptr inbounds nuw %struct.string_list_item, ptr %28, i32 0, i32 0
  %30 = load ptr, ptr %29, align 8, !tbaa !116
  store ptr %30, ptr %9, align 8, !tbaa !43
  call void @llvm.lifetime.start.p0(i64 4, ptr %10) #12
  %31 = load ptr, ptr %9, align 8, !tbaa !43
  %32 = call i64 @strlen(ptr noundef %31) #14
  %33 = trunc i64 %32 to i32
  store i32 %33, ptr %10, align 4, !tbaa !4
  %34 = load i32, ptr %10, align 4, !tbaa !4
  %35 = icmp sgt i32 %34, 0
  br i1 %35, label %36, label %48

36:                                               ; preds = %23
  %37 = load ptr, ptr %9, align 8, !tbaa !43
  %38 = load i32, ptr %10, align 4, !tbaa !4
  %39 = sub nsw i32 %38, 1
  %40 = sext i32 %39 to i64
  %41 = getelementptr inbounds i8, ptr %37, i64 %40
  %42 = load i8, ptr %41, align 1, !tbaa !18
  %43 = sext i8 %42 to i32
  %44 = icmp eq i32 %43, 47
  br i1 %44, label %45, label %48

45:                                               ; preds = %36
  %46 = load i32, ptr %10, align 4, !tbaa !4
  %47 = add nsw i32 %46, -1
  store i32 %47, ptr %10, align 4, !tbaa !4
  br label %48

48:                                               ; preds = %45, %36, %23
  %49 = load ptr, ptr %4, align 8, !tbaa !43
  %50 = load ptr, ptr %9, align 8, !tbaa !43
  %51 = load i32, ptr %10, align 4, !tbaa !4
  %52 = sext i32 %51 to i64
  %53 = call i32 @strncmp(ptr noundef %49, ptr noundef %50, i64 noundef %52) #14
  %54 = icmp ne i32 %53, 0
  br i1 %54, label %71, label %55

55:                                               ; preds = %48
  %56 = load ptr, ptr %4, align 8, !tbaa !43
  %57 = load i32, ptr %10, align 4, !tbaa !4
  %58 = sext i32 %57 to i64
  %59 = getelementptr inbounds i8, ptr %56, i64 %58
  %60 = load i8, ptr %59, align 1, !tbaa !18
  %61 = sext i8 %60 to i32
  %62 = icmp ne i32 %61, 47
  br i1 %62, label %71, label %63

63:                                               ; preds = %55
  %64 = load ptr, ptr %4, align 8, !tbaa !43
  %65 = load i32, ptr %10, align 4, !tbaa !4
  %66 = add nsw i32 %65, 1
  %67 = sext i32 %66 to i64
  %68 = getelementptr inbounds i8, ptr %64, i64 %67
  %69 = load i8, ptr %68, align 1, !tbaa !18
  %70 = icmp ne i8 %69, 0
  br i1 %70, label %72, label %71

71:                                               ; preds = %63, %55, %48
  store i32 4, ptr %7, align 4
  br label %79

72:                                               ; preds = %63
  %73 = load i32, ptr %10, align 4, !tbaa !4
  %74 = load i32, ptr %6, align 4, !tbaa !4
  %75 = icmp sgt i32 %73, %74
  br i1 %75, label %76, label %78

76:                                               ; preds = %72
  %77 = load i32, ptr %10, align 4, !tbaa !4
  store i32 %77, ptr %6, align 4, !tbaa !4
  br label %78

78:                                               ; preds = %76, %72
  store i32 0, ptr %7, align 4
  br label %79

79:                                               ; preds = %78, %71
  call void @llvm.lifetime.end.p0(i64 4, ptr %10) #12
  call void @llvm.lifetime.end.p0(i64 8, ptr %9) #12
  %80 = load i32, ptr %7, align 4
  switch i32 %80, label %89 [
    i32 0, label %81
    i32 4, label %82
  ]

81:                                               ; preds = %79
  br label %82

82:                                               ; preds = %81, %79
  %83 = load i64, ptr %8, align 8, !tbaa !11
  %84 = add i64 %83, 1
  store i64 %84, ptr %8, align 8, !tbaa !11
  br label %16, !llvm.loop !118

85:                                               ; preds = %22
  %86 = load i32, ptr %6, align 4, !tbaa !4
  store i32 %86, ptr %3, align 4
  store i32 1, ptr %7, align 4
  br label %87

87:                                               ; preds = %85, %14
  call void @llvm.lifetime.end.p0(i64 4, ptr %6) #12
  %88 = load i32, ptr %3, align 4
  ret i32 %88

89:                                               ; preds = %79
  unreachable
}