; Function Attrs: nofree nounwind memory(read, inaccessiblemem: none) uwtable
define dso_local range(i32 -1, -2147483648) i32 @longest_ancestor_length(ptr noundef readonly captures(none) %0, ptr noundef readonly captures(none) %1) local_unnamed_addr #17 {
sub_0:
  %2 = load i8, ptr %0, align 1
  %.not33 = icmp eq i8 %2, 47
  br i1 %.not33, label %.tail, label %.preheader

.tail:                                            ; preds = %sub_0
  %3 = getelementptr inbounds nuw i8, ptr %0, i64 1
  %4 = load i8, ptr %3, align 1
  %5 = icmp eq i8 %4, 0
  br i1 %5, label %.loopexit, label %.preheader

.preheader:                                       ; preds = %sub_0, %.tail
  %6 = getelementptr inbounds nuw i8, ptr %1, i64 8
  %7 = load i64, ptr %6, align 8, !tbaa !95
  %.not34 = icmp eq i64 %7, 0
  br i1 %.not34, label %.loopexit, label %.lr.ph

.lr.ph:                                           ; preds = %.preheader
  %8 = load ptr, ptr %1, align 8, !tbaa !98
  br label %9

9:                                                ; preds = %.lr.ph, %32
  %.02332 = phi i64 [ 0, %.lr.ph ], [ %33, %32 ]
  %.02431 = phi i32 [ -1, %.lr.ph ], [ %.1, %32 ]
  %10 = getelementptr inbounds nuw %struct.string_list_item, ptr %8, i64 %.02332
  %11 = load ptr, ptr %10, align 8, !tbaa !99
  %12 = tail call i64 @strlen(ptr noundef nonnull dereferenceable(1) %11) #30
  %13 = trunc i64 %12 to i32
  %14 = icmp sgt i32 %13, 0
  br i1 %14, label %15, label %22

15:                                               ; preds = %9
  %16 = add i64 %12, 4294967295
  %17 = and i64 %16, 4294967295
  %18 = getelementptr inbounds nuw i8, ptr %11, i64 %17
  %19 = load i8, ptr %18, align 1, !tbaa !14
  %20 = icmp eq i8 %19, 47
  %21 = sext i1 %20 to i32
  %spec.select = add nsw i32 %21, %13
  br label %22

22:                                               ; preds = %15, %9
  %.0 = phi i32 [ %13, %9 ], [ %spec.select, %15 ]
  %23 = sext i32 %.0 to i64
  %24 = tail call i32 @strncmp(ptr noundef nonnull %0, ptr noundef nonnull %11, i64 noundef %23) #30
  %.not27 = icmp eq i32 %24, 0
  br i1 %.not27, label %25, label %32

25:                                               ; preds = %22
  %26 = getelementptr inbounds i8, ptr %0, i64 %23
  %27 = load i8, ptr %26, align 1, !tbaa !14
  %.not28 = icmp eq i8 %27, 47
  br i1 %.not28, label %28, label %32

28:                                               ; preds = %25
  %29 = getelementptr i8, ptr %26, i64 1
  %30 = load i8, ptr %29, align 1, !tbaa !14
  %.not29 = icmp eq i8 %30, 0
  br i1 %.not29, label %32, label %31

31:                                               ; preds = %28
  %spec.select30 = tail call i32 @llvm.smax.i32(i32 %.0, i32 %.02431)
  br label %32

32:                                               ; preds = %22, %25, %28, %31
  %.1 = phi i32 [ %spec.select30, %31 ], [ %.02431, %28 ], [ %.02431, %25 ], [ %.02431, %22 ]
  %33 = add nuw i64 %.02332, 1
  %exitcond.not = icmp eq i64 %33, %7
  br i1 %exitcond.not, label %.loopexit, label %9, !llvm.loop !101

.loopexit:                                        ; preds = %32, %.preheader, %.tail
  %.022 = phi i32 [ -1, %.tail ], [ -1, %.preheader ], [ %.1, %32 ]
  ret i32 %.022
}